target datalayout = "e-m:e-p270:32:32-p271:32:32-p272:64:64-i64:64-i128:128-f80:128-n8:16:32:64-S128"
target triple = "x86_64-pc-linux-gnu"

%"class.icu_77::MessagePattern" = type <{ %"class.icu_77::UObject", i32, [4 x i8], %"class.icu_77::UnicodeString", ptr, ptr, i32, [4 x i8], ptr, ptr, i32, i8, i8, i8, i8 }>
%"class.icu_77::UObject" = type { ptr }
%"class.icu_77::UnicodeString" = type { %"class.icu_77::Replaceable", %"union.icu_77::UnicodeString::StackBufferOrFields" }
%"class.icu_77::Replaceable" = type { %"class.icu_77::UObject" }
%"union.icu_77::UnicodeString::StackBufferOrFields" = type { %struct.anon.0, [32 x i8] }
%struct.anon.0 = type { i16, i32, i32, ptr }
%"class.icu_77::MessagePatternList" = type { %"class.icu_77::MaybeStackArray" }
%"class.icu_77::MaybeStackArray" = type { ptr, i32, i8, [32 x %"class.icu_77::MessagePattern::Part"] }
%"class.icu_77::MessagePattern::Part" = type { i32, i32, i16, i16, i32 }

; Function Attrs: mustprogress nounwind uwtable
define linkonce_odr noundef nonnull align 4 dereferenceable(16) ptr @_ZN6icu_7715MaybeStackArrayINS_14MessagePattern4PartELi32EEixEl(ptr noundef nonnull align 8 dereferenceable(528) %0, i64 noundef %1) #5 comdat align 2 {
  %3 = alloca ptr, align 8
  %4 = alloca i64, align 8
  store ptr %0, ptr %3, align 8, !tbaa !42
  store i64 %1, ptr %4, align 8, !tbaa !87
  %5 = load ptr, ptr %3, align 8
  %6 = getelementptr inbounds nuw %"class.icu_77::MaybeStackArray", ptr %5, i32 0, i32 0
  %7 = load ptr, ptr %6, align 8, !tbaa !44
  %8 = load i64, ptr %4, align 8, !tbaa !87
  %9 = getelementptr inbounds %"class.icu_77::MessagePattern::Part", ptr %7, i64 %8
  ret ptr %9
}

; Function Attrs: mustprogress uwtable
define noundef signext i8 @_ZN6icu_7714MessagePattern22inMessageFormatPatternEi(ptr noundef nonnull align 8 dereferenceable(127) %0, i32 noundef %1) #0 align 2 {
  %3 = alloca ptr, align 8
  %4 = alloca i32, align 4
  store ptr %0, ptr %3, align 8, !tbaa !3
  store i32 %1, ptr %4, align 4, !tbaa !48
  %5 = load ptr, ptr %3, align 8
  %6 = load i32, ptr %4, align 4, !tbaa !48
  %7 = icmp sgt i32 %6, 0
  br i1 %7, label %16, label %8

8:                                                ; preds = %2
  %9 = getelementptr inbounds nuw %"class.icu_77::MessagePattern", ptr %5, i32 0, i32 4
  %10 = load ptr, ptr %9, align 8, !tbaa !22
  %11 = getelementptr inbounds nuw %"class.icu_77::MessagePatternList", ptr %10, i32 0, i32 0
  %12 = call noundef nonnull align 4 dereferenceable(16) ptr @_ZN6icu_7715MaybeStackArrayINS_14MessagePattern4PartELi32EEixEl(ptr noundef nonnull align 8 dereferenceable(528) %11, i64 noundef 0)
  %13 = getelementptr inbounds nuw %"class.icu_77::MessagePattern::Part", ptr %12, i32 0, i32 0
  %14 = load i32, ptr %13, align 4, !tbaa !71
  %15 = icmp eq i32 %14, 0
  br label %16

16:                                               ; preds = %8, %2
  %17 = phi i1 [ true, %2 ], [ %15, %8 ]
  %18 = zext i1 %17 to i8
  ret i8 %18
}