; Function Attrs: mustprogress nofree norecurse nosync nounwind willreturn memory(read, inaccessiblemem: none) uwtable
define noundef signext range(i8 0, 2) i8 @_ZN6icu_7714MessagePattern22inMessageFormatPatternEi(ptr noundef nonnull readonly align 8 captures(none) dereferenceable(127) %0, i32 noundef %1) local_unnamed_addr #8 align 2 {
  %3 = icmp sgt i32 %1, 0
  br i1 %3, label %11, label %4

4:                                                ; preds = %2
  %5 = getelementptr inbounds nuw i8, ptr %0, i64 80
  %6 = load ptr, ptr %5, align 8, !tbaa !22
  %7 = load ptr, ptr %6, align 8, !tbaa !23
  %8 = load i32, ptr %7, align 4, !tbaa !44
  %9 = icmp eq i32 %8, 0
  %10 = zext i1 %9 to i8
  br label %11

11:                                               ; preds = %4, %2
  %12 = phi i8 [ 1, %2 ], [ %10, %4 ]
  ret i8 %12
}